target datalayout = "e-m:e-p270:32:32-p271:32:32-p272:64:64-i64:64-i128:128-f80:128-n8:16:32:64-S128"
target triple = "x86_64-pc-linux-gnu"

%struct._generic_SUNMatrix = type { ptr, ptr, ptr }
%struct._SUNMatrixContent_Sparse = type { i64, i64, i64, i64, ptr, i32, ptr, ptr, ptr, ptr, ptr, ptr }

; Function Attrs: nounwind uwtable
define ptr @SUNMatClone_Sparse(ptr noundef %0) #0 {
  %2 = alloca ptr, align 8
  %3 = alloca ptr, align 8
  %4 = alloca ptr, align 8
  store ptr %0, ptr %2, align 8, !tbaa !12
  call void @llvm.lifetime.start.p0(i64 8, ptr %3) #8
  %5 = load ptr, ptr %2, align 8, !tbaa !12
  %6 = getelementptr inbounds nuw %struct._generic_SUNMatrix, ptr %5, i32 0, i32 2
  %7 = load ptr, ptr %6, align 8, !tbaa !46
  store ptr %7, ptr %3, align 8, !tbaa !9
  call void @llvm.lifetime.start.p0(i64 8, ptr %4) #8
  %8 = load ptr, ptr %2, align 8, !tbaa !12
  %9 = getelementptr inbounds nuw %struct._generic_SUNMatrix, ptr %8, i32 0, i32 0
  %10 = load ptr, ptr %9, align 8, !tbaa !29
  %11 = getelementptr inbounds nuw %struct._SUNMatrixContent_Sparse, ptr %10, i32 0, i32 0
  %12 = load i64, ptr %11, align 8, !tbaa !35
  %13 = load ptr, ptr %2, align 8, !tbaa !12
  %14 = getelementptr inbounds nuw %struct._generic_SUNMatrix, ptr %13, i32 0, i32 0
  %15 = load ptr, ptr %14, align 8, !tbaa !29
  %16 = getelementptr inbounds nuw %struct._SUNMatrixContent_Sparse, ptr %15, i32 0, i32 1
  %17 = load i64, ptr %16, align 8, !tbaa !36
  %18 = load ptr, ptr %2, align 8, !tbaa !12
  %19 = getelementptr inbounds nuw %struct._generic_SUNMatrix, ptr %18, i32 0, i32 0
  %20 = load ptr, ptr %19, align 8, !tbaa !29
  %21 = getelementptr inbounds nuw %struct._SUNMatrixContent_Sparse, ptr %20, i32 0, i32 2
  %22 = load i64, ptr %21, align 8, !tbaa !37
  %23 = load ptr, ptr %2, align 8, !tbaa !12
  %24 = getelementptr inbounds nuw %struct._generic_SUNMatrix, ptr %23, i32 0, i32 0
  %25 = load ptr, ptr %24, align 8, !tbaa !29
  %26 = getelementptr inbounds nuw %struct._SUNMatrixContent_Sparse, ptr %25, i32 0, i32 5
  %27 = load i32, ptr %26, align 8, !tbaa !30
  %28 = load ptr, ptr %2, align 8, !tbaa !12
  %29 = getelementptr inbounds nuw %struct._generic_SUNMatrix, ptr %28, i32 0, i32 2
  %30 = load ptr, ptr %29, align 8, !tbaa !46
  %31 = call ptr @SUNSparseMatrix(i64 noundef %12, i64 noundef %17, i64 noundef %22, i32 noundef %27, ptr noundef %30)
  store ptr %31, ptr %4, align 8, !tbaa !12
  %32 = load ptr, ptr %4, align 8, !tbaa !12
  call void @llvm.lifetime.end.p0(i64 8, ptr %4) #8
  call void @llvm.lifetime.end.p0(i64 8, ptr %3) #8
  ret ptr %32
}