; Function Attrs: nounwind uwtable
define noundef ptr @SUNMatClone_Sparse(ptr noundef readonly captures(none) %0) #0 {
  %2 = getelementptr inbounds nuw i8, ptr %0, i64 16
  %3 = load ptr, ptr %0, align 8, !tbaa !20
  %4 = load i64, ptr %3, align 8, !tbaa !28
  %5 = getelementptr inbounds nuw i8, ptr %3, i64 8
  %6 = load i64, ptr %5, align 8, !tbaa !29
  %7 = getelementptr inbounds nuw i8, ptr %3, i64 16
  %8 = load i64, ptr %7, align 8, !tbaa !30
  %9 = getelementptr inbounds nuw i8, ptr %3, i64 40
  %10 = load i32, ptr %9, align 8, !tbaa !21
  %11 = load ptr, ptr %2, align 8, !tbaa !36
  %12 = tail call ptr @SUNSparseMatrix(i64 noundef %4, i64 noundef %6, i64 noundef %8, i32 noundef %10, ptr noundef %11)
  ret ptr %12
}